; Function Attrs: nounwind uwtable
define ptr @l_Std_Time_ZonedDateTime_weekOfMonth___boxed(ptr noundef %0) local_unnamed_addr #1 {
  %2 = getelementptr inbounds nuw i8, ptr %0, i64 8
  %3 = load ptr, ptr %2, align 8, !tbaa !4
  %4 = getelementptr inbounds nuw i8, ptr %3, i64 8
  %5 = load atomic ptr, ptr %4 seq_cst, align 8, !tbaa !15
  %.not.i.i.i = icmp eq ptr %5, null
  br i1 %.not.i.i.i, label %6, label %lean_thunk_get.exit.i.i

6:                                                ; preds = %1
  %7 = tail call ptr @lean_thunk_get_core(ptr noundef nonnull %3) #7
  br label %lean_thunk_get.exit.i.i

lean_thunk_get.exit.i.i:                          ; preds = %6, %1
  %.0.i.i.i = phi ptr [ %7, %6 ], [ %5, %1 ]
  %8 = ptrtoint ptr %.0.i.i.i to i64
  %9 = and i64 %8, 1
  %.not.i5.i = icmp eq i64 %9, 0
  br i1 %.not.i5.i, label %10, label %lean_thunk_get_own.exit.i

10:                                               ; preds = %lean_thunk_get.exit.i.i
  %.val.i.i.i = load i32, ptr %.0.i.i.i, align 4, !tbaa !8
  %11 = icmp sgt i32 %.val.i.i.i, 0
  br i1 %11, label %12, label %14, !prof !11

12:                                               ; preds = %10
  %13 = add nuw i32 %.val.i.i.i, 1
  store i32 %13, ptr %.0.i.i.i, align 4, !tbaa !8
  br label %17

14:                                               ; preds = %10
  %.not.i3.i.i = icmp eq i32 %.val.i.i.i, 0
  br i1 %.not.i3.i.i, label %17, label %15

15:                                               ; preds = %14
  tail call void @lean_inc_ref_cold(ptr noundef nonnull %.0.i.i.i) #7
  br label %17

lean_thunk_get_own.exit.i:                        ; preds = %lean_thunk_get.exit.i.i
  %16 = tail call ptr @l_Std_Time_PlainDateTime_weekOfMonth(ptr noundef %.0.i.i.i) #7
  br label %l_Std_Time_ZonedDateTime_weekOfMonth.exit

17:                                               ; preds = %15, %14, %12
  %18 = tail call ptr @l_Std_Time_PlainDateTime_weekOfMonth(ptr noundef nonnull %.0.i.i.i) #7
  %19 = load i32, ptr %.0.i.i.i, align 4, !tbaa !8
  %20 = icmp sgt i32 %19, 1
  br i1 %20, label %21, label %23, !prof !11

21:                                               ; preds = %17
  %22 = add nsw i32 %19, -1
  store i32 %22, ptr %.0.i.i.i, align 4, !tbaa !8
  br label %l_Std_Time_ZonedDateTime_weekOfMonth.exit

23:                                               ; preds = %17
  %.not.i.i = icmp eq i32 %19, 0
  br i1 %.not.i.i, label %l_Std_Time_ZonedDateTime_weekOfMonth.exit, label %24

24:                                               ; preds = %23
  tail call void @lean_dec_ref_cold(ptr noundef nonnull %.0.i.i.i) #7
  br label %l_Std_Time_ZonedDateTime_weekOfMonth.exit

l_Std_Time_ZonedDateTime_weekOfMonth.exit:        ; preds = %lean_thunk_get_own.exit.i, %21, %23, %24
  %25 = phi ptr [ %16, %lean_thunk_get_own.exit.i ], [ %18, %21 ], [ %18, %23 ], [ %18, %24 ]
  %26 = ptrtoint ptr %0 to i64
  %27 = and i64 %26, 1
  %.not = icmp eq i64 %27, 0
  br i1 %.not, label %28, label %lean_dec.exit

28:                                               ; preds = %l_Std_Time_ZonedDateTime_weekOfMonth.exit
  %29 = load i32, ptr %0, align 4, !tbaa !8
  %30 = icmp sgt i32 %29, 1
  br i1 %30, label %31, label %33, !prof !11

31:                                               ; preds = %28
  %32 = add nsw i32 %29, -1
  store i32 %32, ptr %0, align 4, !tbaa !8
  br label %lean_dec.exit

33:                                               ; preds = %28
  %.not.i = icmp eq i32 %29, 0
  br i1 %.not.i, label %lean_dec.exit, label %34

34:                                               ; preds = %33
  tail call void @lean_dec_ref_cold(ptr noundef nonnull %0) #7
  br label %lean_dec.exit

lean_dec.exit:                                    ; preds = %34, %33, %31, %l_Std_Time_ZonedDateTime_weekOfMonth.exit
  ret ptr %25
}